target datalayout = "e-m:e-p270:32:32-p271:32:32-p272:64:64-i64:64-i128:128-f80:128-n8:16:32:64-S128"
target triple = "x86_64-pc-linux-gnu"

%"class.rocksdb::HistogramBucketMapper" = type { %"class.std::vector", i64, i64 }
%"class.std::vector" = type { %"struct.std::_Vector_base" }
%"struct.std::_Vector_base" = type { %"struct.std::_Vector_base<unsigned long, std::allocator<unsigned long>>::_Vector_impl" }
%"struct.std::_Vector_base<unsigned long, std::allocator<unsigned long>>::_Vector_impl" = type { %"struct.std::_Vector_base<unsigned long, std::allocator<unsigned long>>::_Vector_impl_data" }
%"struct.std::_Vector_base<unsigned long, std::allocator<unsigned long>>::_Vector_impl_data" = type { ptr, ptr, ptr }
%"struct.rocksdb::HistogramStat" = type { %"struct.std::atomic", %"struct.std::atomic", %"struct.std::atomic", %"struct.std::atomic", %"struct.std::atomic", [109 x %"struct.std::atomic"], i64 }
%"struct.std::atomic" = type { %"struct.std::__atomic_base" }
%"struct.std::__atomic_base" = type { i64 }

@_ZN7rocksdb12_GLOBAL__N_112bucketMapperE = internal global %"class.rocksdb::HistogramBucketMapper" zeroinitializer, align 8

; Function Attrs: noinline noreturn nounwind uwtable
define linkonce_odr hidden void @__clang_call_terminate(ptr noundef %0) #13 comdat {
  %2 = call ptr @__cxa_begin_catch(ptr %0) #7
  call void @_ZSt9terminatev() #19
  unreachable
}

; Function Attrs: mustprogress nounwind uwtable
define linkonce_odr noundef i32 @_ZStanSt12memory_orderSt23__memory_order_modifier(i32 noundef %0, i32 noundef %1) #1 comdat {
  %3 = alloca i32, align 4
  %4 = alloca i32, align 4
  store i32 %0, ptr %3, align 4, !tbaa !46
  store i32 %1, ptr %4, align 4, !tbaa !106
  %5 = load i32, ptr %3, align 4, !tbaa !46
  %6 = load i32, ptr %4, align 4, !tbaa !106
  %7 = and i32 %5, %6
  ret i32 %7
}

; Function Attrs: mustprogress nounwind uwtable
define linkonce_odr noundef nonnull align 8 dereferenceable(8) ptr @_ZNKSt6vectorImSaImEEixEm(ptr noundef nonnull align 8 dereferenceable(24) %0, i64 noundef %1) #1 comdat align 2 {
  %3 = alloca ptr, align 8
  %4 = alloca i64, align 8
  store ptr %0, ptr %3, align 8, !tbaa !27
  store i64 %1, ptr %4, align 8, !tbaa !9
  %5 = load ptr, ptr %3, align 8
  %6 = getelementptr inbounds nuw %"struct.std::_Vector_base", ptr %5, i32 0, i32 0
  %7 = getelementptr inbounds nuw %"struct.std::_Vector_base<unsigned long, std::allocator<unsigned long>>::_Vector_impl_data", ptr %6, i32 0, i32 0
  %8 = load ptr, ptr %7, align 8, !tbaa !30
  %9 = load i64, ptr %4, align 8, !tbaa !9
  %10 = getelementptr inbounds nuw i64, ptr %8, i64 %9
  ret ptr %10
}

; Function Attrs: alwaysinline mustprogress nounwind uwtable
define linkonce_odr noundef i64 @_ZNKSt13__atomic_baseImE4loadESt12memory_order(ptr noundef nonnull align 8 dereferenceable(8) %0, i32 noundef %1) #8 comdat align 2 personality ptr @__gxx_personality_v0 {
  %3 = alloca ptr, align 8
  %4 = alloca i32, align 4
  %5 = alloca i32, align 4
  %6 = alloca i64, align 8
  store ptr %0, ptr %3, align 8, !tbaa !44
  store i32 %1, ptr %4, align 4, !tbaa !46
  %7 = load ptr, ptr %3, align 8
  call void @llvm.lifetime.start.p0(i64 4, ptr %5) #7
  %8 = load i32, ptr %4, align 4, !tbaa !46
  %9 = invoke noundef i32 @_ZStanSt12memory_orderSt23__memory_order_modifier(i32 noundef %8, i32 noundef 65535)
          to label %10 unwind label %27

10:                                               ; preds = %2
  store i32 %9, ptr %5, align 4, !tbaa !46
  br label %11

11:                                               ; preds = %10
  br label %12

12:                                               ; preds = %11
  br label %13

13:                                               ; preds = %12
  br label %14

14:                                               ; preds = %13
  br label %15

15:                                               ; preds = %14
  br label %16

16:                                               ; preds = %15
  %17 = getelementptr inbounds nuw %"struct.std::__atomic_base", ptr %7, i32 0, i32 0
  %18 = load i32, ptr %4, align 4, !tbaa !46
  switch i32 %18, label %19 [
    i32 1, label %21
    i32 2, label %21
    i32 5, label %23
  ]

19:                                               ; preds = %16
  %20 = load atomic i64, ptr %17 monotonic, align 8
  store i64 %20, ptr %6, align 8
  br label %25

21:                                               ; preds = %16, %16
  %22 = load atomic i64, ptr %17 acquire, align 8
  store i64 %22, ptr %6, align 8
  br label %25

23:                                               ; preds = %16
  %24 = load atomic i64, ptr %17 seq_cst, align 8
  store i64 %24, ptr %6, align 8
  br label %25

25:                                               ; preds = %23, %21, %19
  %26 = load i64, ptr %6, align 8, !tbaa !9
  call void @llvm.lifetime.end.p0(i64 4, ptr %5) #7
  ret i64 %26

27:                                               ; preds = %2
  %28 = landingpad { ptr, i32 }
          catch ptr null
  %29 = extractvalue { ptr, i32 } %28, 0
  call void @__clang_call_terminate(ptr %29) #19
  unreachable
}

; Function Attrs: inlinehint mustprogress nounwind uwtable
define linkonce_odr noundef i64 @_ZNK7rocksdb13HistogramStat3maxEv(ptr noundef nonnull align 8 dereferenceable(920) %0) #3 comdat align 2 {
  %2 = alloca ptr, align 8
  store ptr %0, ptr %2, align 8, !tbaa !35
  %3 = load ptr, ptr %2, align 8
  %4 = getelementptr inbounds nuw %"struct.rocksdb::HistogramStat", ptr %3, i32 0, i32 1
  %5 = call noundef i64 @_ZNKSt13__atomic_baseImE4loadESt12memory_order(ptr noundef nonnull align 8 dereferenceable(8) %4, i32 noundef 0) #7
  ret i64 %5
}

; Function Attrs: inlinehint mustprogress nounwind uwtable
define linkonce_odr noundef i64 @_ZNK7rocksdb13HistogramStat3minEv(ptr noundef nonnull align 8 dereferenceable(920) %0) #3 comdat align 2 {
  %2 = alloca ptr, align 8
  store ptr %0, ptr %2, align 8, !tbaa !35
  %3 = load ptr, ptr %2, align 8
  %4 = getelementptr inbounds nuw %"struct.rocksdb::HistogramStat", ptr %3, i32 0, i32 0
  %5 = call noundef i64 @_ZNKSt13__atomic_baseImE4loadESt12memory_order(ptr noundef nonnull align 8 dereferenceable(8) %4, i32 noundef 0) #7
  ret i64 %5
}

; Function Attrs: mustprogress nounwind uwtable
define linkonce_odr noundef i64 @_ZNK7rocksdb21HistogramBucketMapper11BucketLimitEm(ptr noundef nonnull align 8 dereferenceable(40) %0, i64 noundef %1) #1 comdat align 2 {
  %3 = alloca ptr, align 8
  %4 = alloca i64, align 8
  store ptr %0, ptr %3, align 8, !tbaa !4
  store i64 %1, ptr %4, align 8, !tbaa !9
  %5 = load ptr, ptr %3, align 8
  %6 = getelementptr inbounds nuw %"class.rocksdb::HistogramBucketMapper", ptr %5, i32 0, i32 0
  %7 = load i64, ptr %4, align 8, !tbaa !9
  %8 = call noundef nonnull align 8 dereferenceable(8) ptr @_ZNKSt6vectorImSaImEEixEm(ptr noundef nonnull align 8 dereferenceable(24) %6, i64 noundef %7) #7
  %9 = load i64, ptr %8, align 8, !tbaa !9
  ret i64 %9
}

; Function Attrs: inlinehint mustprogress nounwind uwtable
define linkonce_odr noundef i64 @_ZNK7rocksdb13HistogramStat9bucket_atEm(ptr noundef nonnull align 8 dereferenceable(920) %0, i64 noundef %1) #3 comdat align 2 {
  %3 = alloca ptr, align 8
  %4 = alloca i64, align 8
  store ptr %0, ptr %3, align 8, !tbaa !35
  store i64 %1, ptr %4, align 8, !tbaa !9
  %5 = load ptr, ptr %3, align 8
  %6 = getelementptr inbounds nuw %"struct.rocksdb::HistogramStat", ptr %5, i32 0, i32 5
  %7 = load i64, ptr %4, align 8, !tbaa !9
  %8 = getelementptr inbounds nuw [109 x %"struct.std::atomic"], ptr %6, i64 0, i64 %7
  %9 = call noundef i64 @_ZNKSt13__atomic_baseImE4loadESt12memory_order(ptr noundef nonnull align 8 dereferenceable(8) %8, i32 noundef 0) #7
  ret i64 %9
}

; Function Attrs: inlinehint mustprogress nounwind uwtable
define linkonce_odr noundef i64 @_ZNK7rocksdb13HistogramStat3numEv(ptr noundef nonnull align 8 dereferenceable(920) %0) #3 comdat align 2 {
  %2 = alloca ptr, align 8
  store ptr %0, ptr %2, align 8, !tbaa !35
  %3 = load ptr, ptr %2, align 8
  %4 = getelementptr inbounds nuw %"struct.rocksdb::HistogramStat", ptr %3, i32 0, i32 2
  %5 = call noundef i64 @_ZNKSt13__atomic_baseImE4loadESt12memory_order(ptr noundef nonnull align 8 dereferenceable(8) %4, i32 noundef 0) #7
  ret i64 %5
}

; Function Attrs: mustprogress uwtable
define noundef double @_ZNK7rocksdb13HistogramStat10PercentileEd(ptr noundef nonnull align 8 dereferenceable(920) %0, double noundef %1) #0 align 2 {
  %3 = alloca double, align 8
  %4 = alloca ptr, align 8
  %5 = alloca double, align 8
  %6 = alloca double, align 8
  %7 = alloca i64, align 8
  %8 = alloca i32, align 4
  %9 = alloca i32, align 4
  %10 = alloca i64, align 8
  %11 = alloca i64, align 8
  %12 = alloca i64, align 8
  %13 = alloca i64, align 8
  %14 = alloca i64, align 8
  %15 = alloca double, align 8
  %16 = alloca i64, align 8
  %17 = alloca double, align 8
  %18 = alloca i64, align 8
  %19 = alloca i64, align 8
  store ptr %0, ptr %4, align 8, !tbaa !35
  store double %1, ptr %5, align 8, !tbaa !15
  %20 = load ptr, ptr %4, align 8
  call void @llvm.lifetime.start.p0(i64 8, ptr %6) #7
  %21 = call noundef i64 @_ZNK7rocksdb13HistogramStat3numEv(ptr noundef nonnull align 8 dereferenceable(920) %20)
  %22 = uitofp i64 %21 to double
  %23 = load double, ptr %5, align 8, !tbaa !15
  %24 = fdiv double %23, 1.000000e+02
  %25 = fmul double %22, %24
  store double %25, ptr %6, align 8, !tbaa !15
  call void @llvm.lifetime.start.p0(i64 8, ptr %7) #7
  store i64 0, ptr %7, align 8, !tbaa !9
  call void @llvm.lifetime.start.p0(i64 4, ptr %8) #7
  store i32 0, ptr %8, align 4, !tbaa !41
  br label %26

26:                                               ; preds = %107, %2
  %27 = load i32, ptr %8, align 4, !tbaa !41
  %28 = zext i32 %27 to i64
  %29 = getelementptr inbounds nuw %"struct.rocksdb::HistogramStat", ptr %20, i32 0, i32 6
  %30 = load i64, ptr %29, align 8, !tbaa !37
  %31 = icmp ult i64 %28, %30
  br i1 %31, label %33, label %32

32:                                               ; preds = %26
  store i32 2, ptr %9, align 4
  br label %110

33:                                               ; preds = %26
  call void @llvm.lifetime.start.p0(i64 8, ptr %10) #7
  %34 = load i32, ptr %8, align 4, !tbaa !41
  %35 = zext i32 %34 to i64
  %36 = call noundef i64 @_ZNK7rocksdb13HistogramStat9bucket_atEm(ptr noundef nonnull align 8 dereferenceable(920) %20, i64 noundef %35)
  store i64 %36, ptr %10, align 8, !tbaa !9
  %37 = load i64, ptr %10, align 8, !tbaa !9
  %38 = load i64, ptr %7, align 8, !tbaa !9
  %39 = add i64 %38, %37
  store i64 %39, ptr %7, align 8, !tbaa !9
  %40 = load i64, ptr %7, align 8, !tbaa !9
  %41 = uitofp i64 %40 to double
  %42 = load double, ptr %6, align 8, !tbaa !15
  %43 = fcmp oge double %41, %42
  br i1 %43, label %44, label %103

44:                                               ; preds = %33
  call void @llvm.lifetime.start.p0(i64 8, ptr %11) #7
  %45 = load i32, ptr %8, align 4, !tbaa !41
  %46 = icmp eq i32 %45, 0
  br i1 %46, label %47, label %48

47:                                               ; preds = %44
  br label %53

48:                                               ; preds = %44
  %49 = load i32, ptr %8, align 4, !tbaa !41
  %50 = sub i32 %49, 1
  %51 = zext i32 %50 to i64
  %52 = call noundef i64 @_ZNK7rocksdb21HistogramBucketMapper11BucketLimitEm(ptr noundef nonnull align 8 dereferenceable(40) @_ZN7rocksdb12_GLOBAL__N_112bucketMapperE, i64 noundef %51)
  br label %53

53:                                               ; preds = %48, %47
  %54 = phi i64 [ 0, %47 ], [ %52, %48 ]
  store i64 %54, ptr %11, align 8, !tbaa !9
  call void @llvm.lifetime.start.p0(i64 8, ptr %12) #7
  %55 = load i32, ptr %8, align 4, !tbaa !41
  %56 = zext i32 %55 to i64
  %57 = call noundef i64 @_ZNK7rocksdb21HistogramBucketMapper11BucketLimitEm(ptr noundef nonnull align 8 dereferenceable(40) @_ZN7rocksdb12_GLOBAL__N_112bucketMapperE, i64 noundef %56)
  store i64 %57, ptr %12, align 8, !tbaa !9
  call void @llvm.lifetime.start.p0(i64 8, ptr %13) #7
  %58 = load i64, ptr %7, align 8, !tbaa !9
  %59 = load i64, ptr %10, align 8, !tbaa !9
  %60 = sub i64 %58, %59
  store i64 %60, ptr %13, align 8, !tbaa !9
  call void @llvm.lifetime.start.p0(i64 8, ptr %14) #7
  %61 = load i64, ptr %7, align 8, !tbaa !9
  store i64 %61, ptr %14, align 8, !tbaa !9
  call void @llvm.lifetime.start.p0(i64 8, ptr %15) #7
  store double 0.000000e+00, ptr %15, align 8, !tbaa !15
  call void @llvm.lifetime.start.p0(i64 8, ptr %16) #7
  %62 = load i64, ptr %14, align 8, !tbaa !9
  %63 = load i64, ptr %13, align 8, !tbaa !9
  %64 = sub i64 %62, %63
  store i64 %64, ptr %16, align 8, !tbaa !9
  %65 = load i64, ptr %16, align 8, !tbaa !9
  %66 = icmp ne i64 %65, 0
  br i1 %66, label %67, label %75

67:                                               ; preds = %53
  %68 = load double, ptr %6, align 8, !tbaa !15
  %69 = load i64, ptr %13, align 8, !tbaa !9
  %70 = uitofp i64 %69 to double
  %71 = fsub double %68, %70
  %72 = load i64, ptr %16, align 8, !tbaa !9
  %73 = uitofp i64 %72 to double
  %74 = fdiv double %71, %73
  store double %74, ptr %15, align 8, !tbaa !15
  br label %75

75:                                               ; preds = %67, %53
  call void @llvm.lifetime.start.p0(i64 8, ptr %17) #7
  %76 = load i64, ptr %11, align 8, !tbaa !9
  %77 = uitofp i64 %76 to double
  %78 = load i64, ptr %12, align 8, !tbaa !9
  %79 = load i64, ptr %11, align 8, !tbaa !9
  %80 = sub i64 %78, %79
  %81 = uitofp i64 %80 to double
  %82 = load double, ptr %15, align 8, !tbaa !15
  %83 = call double @llvm.fmuladd.f64(double %81, double %82, double %77)
  store double %83, ptr %17, align 8, !tbaa !15
  call void @llvm.lifetime.start.p0(i64 8, ptr %18) #7
  %84 = call noundef i64 @_ZNK7rocksdb13HistogramStat3minEv(ptr noundef nonnull align 8 dereferenceable(920) %20)
  store i64 %84, ptr %18, align 8, !tbaa !9
  call void @llvm.lifetime.start.p0(i64 8, ptr %19) #7
  %85 = call noundef i64 @_ZNK7rocksdb13HistogramStat3maxEv(ptr noundef nonnull align 8 dereferenceable(920) %20)
  store i64 %85, ptr %19, align 8, !tbaa !9
  %86 = load double, ptr %17, align 8, !tbaa !15
  %87 = load i64, ptr %18, align 8, !tbaa !9
  %88 = uitofp i64 %87 to double
  %89 = fcmp olt double %86, %88
  br i1 %89, label %90, label %93

90:                                               ; preds = %75
  %91 = load i64, ptr %18, align 8, !tbaa !9
  %92 = uitofp i64 %91 to double
  store double %92, ptr %17, align 8, !tbaa !15
  br label %93

93:                                               ; preds = %90, %75
  %94 = load double, ptr %17, align 8, !tbaa !15
  %95 = load i64, ptr %19, align 8, !tbaa !9
  %96 = uitofp i64 %95 to double
  %97 = fcmp ogt double %94, %96
  br i1 %97, label %98, label %101

98:                                               ; preds = %93
  %99 = load i64, ptr %19, align 8, !tbaa !9
  %100 = uitofp i64 %99 to double
  store double %100, ptr %17, align 8, !tbaa !15
  br label %101

101:                                              ; preds = %98, %93
  %102 = load double, ptr %17, align 8, !tbaa !15
  store double %102, ptr %3, align 8
  store i32 1, ptr %9, align 4
  call void @llvm.lifetime.end.p0(i64 8, ptr %19) #7
  call void @llvm.lifetime.end.p0(i64 8, ptr %18) #7
  call void @llvm.lifetime.end.p0(i64 8, ptr %17) #7
  call void @llvm.lifetime.end.p0(i64 8, ptr %16) #7
  call void @llvm.lifetime.end.p0(i64 8, ptr %15) #7
  call void @llvm.lifetime.end.p0(i64 8, ptr %14) #7
  call void @llvm.lifetime.end.p0(i64 8, ptr %13) #7
  call void @llvm.lifetime.end.p0(i64 8, ptr %12) #7
  call void @llvm.lifetime.end.p0(i64 8, ptr %11) #7
  br label %104

103:                                              ; preds = %33
  store i32 0, ptr %9, align 4
  br label %104

104:                                              ; preds = %103, %101
  call void @llvm.lifetime.end.p0(i64 8, ptr %10) #7
  %105 = load i32, ptr %9, align 4
  switch i32 %105, label %110 [
    i32 0, label %106
  ]

106:                                              ; preds = %104
  br label %107

107:                                              ; preds = %106
  %108 = load i32, ptr %8, align 4, !tbaa !41
  %109 = add i32 %108, 1
  store i32 %109, ptr %8, align 4, !tbaa !41
  br label %26, !llvm.loop !51

110:                                              ; preds = %104, %32
  call void @llvm.lifetime.end.p0(i64 4, ptr %8) #7
  %111 = load i32, ptr %9, align 4
  switch i32 %111, label %115 [
    i32 2, label %112
  ]

112:                                              ; preds = %110
  %113 = call noundef i64 @_ZNK7rocksdb13HistogramStat3maxEv(ptr noundef nonnull align 8 dereferenceable(920) %20)
  %114 = uitofp i64 %113 to double
  store double %114, ptr %3, align 8
  store i32 1, ptr %9, align 4
  br label %115

115:                                              ; preds = %112, %110
  call void @llvm.lifetime.end.p0(i64 8, ptr %7) #7
  call void @llvm.lifetime.end.p0(i64 8, ptr %6) #7
  %116 = load double, ptr %3, align 8
  ret double %116
}

; Function Attrs: mustprogress uwtable
define noundef double @_ZNK7rocksdb13HistogramStat6MedianEv(ptr noundef nonnull align 8 dereferenceable(920) %0) #0 align 2 {
  %2 = alloca ptr, align 8
  store ptr %0, ptr %2, align 8, !tbaa !35
  %3 = load ptr, ptr %2, align 8
  %4 = call noundef double @_ZNK7rocksdb13HistogramStat10PercentileEd(ptr noundef nonnull align 8 dereferenceable(920) %3, double noundef 5.000000e+01)
  ret double %4
}