; Function Attrs: mustprogress nofree norecurse nounwind memory(read, argmem: readwrite, inaccessiblemem: none) uwtable
define noundef double @_ZNK7rocksdb13HistogramStat6MedianEv(ptr noundef nonnull readonly align 8 captures(none) dereferenceable(920) %0) local_unnamed_addr #5 align 2 personality ptr @__gxx_personality_v0 {
  %2 = getelementptr inbounds nuw i8, ptr %0, i64 16
  %3 = load atomic i64, ptr %2 monotonic, align 8
  %4 = uitofp i64 %3 to double
  %5 = fmul double %4, 5.000000e-01
  %6 = getelementptr inbounds nuw i8, ptr %0, i64 912
  %7 = load i64, ptr %6, align 8, !tbaa !25
  %.not4857.not.i = icmp eq i64 %7, 0
  br i1 %.not4857.not.i, label %._crit_edge.i, label %.lr.ph.i

.lr.ph.i:                                         ; preds = %1
  %8 = getelementptr inbounds nuw i8, ptr %0, i64 40
  br label %9

9:                                                ; preds = %41, %.lr.ph.i
  %10 = phi i64 [ 0, %.lr.ph.i ], [ %43, %41 ]
  %.03559.i = phi i64 [ 0, %.lr.ph.i ], [ %13, %41 ]
  %.03858.i = phi i32 [ 0, %.lr.ph.i ], [ %42, %41 ]
  %11 = getelementptr inbounds nuw [109 x %"struct.std::atomic"], ptr %8, i64 0, i64 %10
  %12 = load atomic i64, ptr %11 monotonic, align 8
  %13 = add i64 %12, %.03559.i
  %14 = uitofp i64 %13 to double
  %15 = fcmp ugt double %5, %14
  br i1 %15, label %41, label %16

16:                                               ; preds = %9
  %17 = icmp eq i32 %.03858.i, 0
  %.pre.i = load ptr, ptr @_ZN7rocksdb12_GLOBAL__N_112bucketMapperE, align 8, !tbaa !4
  br i1 %17, label %.thread51.i, label %18

18:                                               ; preds = %16
  %19 = add i32 %.03858.i, -1
  %20 = zext i32 %19 to i64
  %21 = getelementptr inbounds nuw i64, ptr %.pre.i, i64 %20
  %22 = load i64, ptr %21, align 8, !tbaa !12
  br label %.thread51.i

.thread51.i:                                      ; preds = %18, %16
  %23 = phi i64 [ %22, %18 ], [ 0, %16 ]
  %24 = getelementptr inbounds nuw i64, ptr %.pre.i, i64 %10
  %25 = load i64, ptr %24, align 8, !tbaa !12
  %.not.i = icmp eq i64 %12, 0
  %26 = uitofp i64 %.03559.i to double
  %27 = fsub double %5, %26
  %28 = uitofp i64 %12 to double
  %29 = fdiv double %27, %28
  %.039.i = select i1 %.not.i, double 0.000000e+00, double %29
  %30 = uitofp i64 %23 to double
  %31 = sub i64 %25, %23
  %32 = uitofp i64 %31 to double
  %33 = tail call double @llvm.fmuladd.f64(double %32, double %.039.i, double %30)
  %34 = load atomic i64, ptr %0 monotonic, align 8
  %35 = getelementptr inbounds nuw i8, ptr %0, i64 8
  %36 = load atomic i64, ptr %35 monotonic, align 8
  %37 = uitofp i64 %34 to double
  %38 = fcmp olt double %33, %37
  %.036.i = select i1 %38, double %37, double %33
  %39 = uitofp i64 %36 to double
  %40 = fcmp ogt double %.036.i, %39
  %.137.i = select i1 %40, double %39, double %.036.i
  br label %_ZNK7rocksdb13HistogramStat10PercentileEd.exit

41:                                               ; preds = %9
  %42 = add i32 %.03858.i, 1
  %43 = zext i32 %42 to i64
  %.not48.i = icmp ugt i64 %7, %43
  br i1 %.not48.i, label %9, label %._crit_edge.i, !llvm.loop !33

._crit_edge.i:                                    ; preds = %41, %1
  %44 = getelementptr inbounds nuw i8, ptr %0, i64 8
  %45 = load atomic i64, ptr %44 monotonic, align 8
  %46 = uitofp i64 %45 to double
  br label %_ZNK7rocksdb13HistogramStat10PercentileEd.exit

_ZNK7rocksdb13HistogramStat10PercentileEd.exit:   ; preds = %.thread51.i, %._crit_edge.i
  %.3.i = phi double [ %46, %._crit_edge.i ], [ %.137.i, %.thread51.i ]
  ret double %.3.i
}